target datalayout = "e-m:e-p270:32:32-p271:32:32-p272:64:64-i64:64-i128:128-f80:128-n8:16:32:64-S128"
target triple = "x86_64-pc-linux-gnu"

%struct.Agdesc_s = type { i8, [3 x i8] }

@Agdirected = external global %struct.Agdesc_s, align 4
@.str.140 = private unnamed_addr constant [40 x i8] c"unknown graph descriptor '%c' : ignored\00", align 1

; Function Attrs: nounwind uwtable
define internal i32 @xargs(ptr noundef %0) #0 {
  %2 = alloca %struct.Agdesc_s, align 4
  %3 = alloca ptr, align 8
  %4 = alloca i8, align 1
  store ptr %0, ptr %3, align 8, !tbaa !7
  call void @llvm.memcpy.p0.p0.i64(ptr align 4 %2, ptr align 4 @Agdirected, i64 4, i1 false), !tbaa.struct !137
  call void @llvm.lifetime.start.p0(i64 1, ptr %4) #16
  br label %5

5:                                                ; preds = %32, %1
  %6 = load ptr, ptr %3, align 8, !tbaa !7
  %7 = getelementptr inbounds nuw i8, ptr %6, i32 1
  store ptr %7, ptr %3, align 8, !tbaa !7
  %8 = load i8, ptr %6, align 1, !tbaa !97
  store i8 %8, ptr %4, align 1, !tbaa !97
  %9 = icmp ne i8 %8, 0
  br i1 %9, label %10, label %33

10:                                               ; preds = %5
  %11 = load i8, ptr %4, align 1, !tbaa !97
  %12 = sext i8 %11 to i32
  switch i32 %12, label %29 [
    i32 117, label %13
    i32 85, label %13
    i32 100, label %17
    i32 68, label %17
    i32 115, label %21
    i32 83, label %21
    i32 110, label %25
    i32 78, label %25
  ]

13:                                               ; preds = %10, %10
  %14 = load i8, ptr %2, align 4
  %15 = and i8 %14, -2
  %16 = or i8 %15, 0
  store i8 %16, ptr %2, align 4
  br label %32

17:                                               ; preds = %10, %10
  %18 = load i8, ptr %2, align 4
  %19 = and i8 %18, -2
  %20 = or i8 %19, 1
  store i8 %20, ptr %2, align 4
  br label %32

21:                                               ; preds = %10, %10
  %22 = load i8, ptr %2, align 4
  %23 = and i8 %22, -3
  %24 = or i8 %23, 2
  store i8 %24, ptr %2, align 4
  br label %32

25:                                               ; preds = %10, %10
  %26 = load i8, ptr %2, align 4
  %27 = and i8 %26, -2
  %28 = or i8 %27, 0
  store i8 %28, ptr %2, align 4
  br label %32

29:                                               ; preds = %10
  %30 = load i8, ptr %4, align 1, !tbaa !97
  %31 = sext i8 %30 to i32
  call void (i32, ptr, ...) @error(i32 noundef 1, ptr noundef @.str.140, i32 noundef %31)
  br label %32

32:                                               ; preds = %29, %25, %21, %17, %13
  br label %5, !llvm.loop !138

33:                                               ; preds = %5
  call void @llvm.lifetime.end.p0(i64 1, ptr %4) #16
  %34 = load i32, ptr %2, align 4
  ret i32 %34
}