; Function Attrs: nounwind uwtable
define internal fastcc i32 @xargs(ptr noundef readonly captures(none) %0) unnamed_addr #0 {
  %.sroa.0.0.copyload = load i8, ptr @Agdirected, align 4, !tbaa !65
  %.sroa.10.sroa.0.0.copyload = load i24, ptr getelementptr inbounds nuw (i8, ptr @Agdirected, i64 1), align 1
  br label %.outer

.outer:                                           ; preds = %.outer.backedge, %1
  %.0.ph = phi ptr [ %0, %1 ], [ %3, %.outer.backedge ]
  %.sroa.0.0.ph = phi i8 [ %.sroa.0.0.copyload, %1 ], [ %.sroa.0.0.ph.be, %.outer.backedge ]
  br label %2

2:                                                ; preds = %.outer, %13
  %.0 = phi ptr [ %3, %13 ], [ %.0.ph, %.outer ]
  %3 = getelementptr inbounds nuw i8, ptr %.0, i64 1
  %4 = load i8, ptr %.0, align 1, !tbaa !65
  switch i8 %4, label %13 [
    i8 0, label %15
    i8 117, label %5
    i8 85, label %5
    i8 100, label %7
    i8 68, label %7
    i8 115, label %9
    i8 83, label %9
    i8 110, label %11
    i8 78, label %11
  ]

5:                                                ; preds = %2, %2
  %6 = and i8 %.sroa.0.0.ph, -2
  br label %.outer.backedge

7:                                                ; preds = %2, %2
  %8 = or i8 %.sroa.0.0.ph, 1
  br label %.outer.backedge

9:                                                ; preds = %2, %2
  %10 = or i8 %.sroa.0.0.ph, 2
  br label %.outer.backedge

11:                                               ; preds = %2, %2
  %12 = and i8 %.sroa.0.0.ph, -2
  br label %.outer.backedge

.outer.backedge:                                  ; preds = %11, %9, %7, %5
  %.sroa.0.0.ph.be = phi i8 [ %6, %5 ], [ %8, %7 ], [ %10, %9 ], [ %12, %11 ]
  br label %.outer, !llvm.loop !134

13:                                               ; preds = %2
  %14 = sext i8 %4 to i32
  tail call void (i32, ptr, ...) @error(i32 noundef 1, ptr noundef nonnull @.str.140, i32 noundef %14) #25
  br label %2, !llvm.loop !134

15:                                               ; preds = %2
  %.sroa.10.0.insert.ext = zext i24 %.sroa.10.sroa.0.0.copyload to i32
  %.sroa.10.0.insert.shift = shl nuw i32 %.sroa.10.0.insert.ext, 8
  %.sroa.0.0.insert.ext = zext i8 %.sroa.0.0.ph to i32
  %.sroa.0.0.insert.insert = or disjoint i32 %.sroa.10.0.insert.shift, %.sroa.0.0.insert.ext
  ret i32 %.sroa.0.0.insert.insert
}